target datalayout = "e-m:e-p270:32:32-p271:32:32-p272:64:64-i64:64-i128:128-f80:128-n8:16:32:64-S128"
target triple = "x86_64-pc-linux-gnu"

%class.Representation = type { %class.PairRep }
%class.PairRep = type { i64, i64 }
%union.JfrNativeSettings = type { [164 x %struct.jfrNativeEventSetting] }
%struct.jfrNativeEventSetting = type { i64, i64, i8, i8, i8, [5 x i8] }
%class.EventNativeMemoryUsage = type { %class.JfrEvent.base.1, i64, i64, i64 }
%class.JfrEvent.base.1 = type <{ i64, i64, i8, i8, i8 }>
%class.JfrEvent.0 = type <{ i64, i64, i8, i8, i8, [5 x i8] }>
%class.TimeInstant.3 = type { %class.CounterRepresentation }
%class.CounterRepresentation = type { %class.Representation.4 }
%class.Representation.4 = type { i64 }

@_ZN10MemTracker15_tracking_levelE = external global i32, align 4
@_ZN15JfrEventSetting19_jvm_event_settingsE = external global %union.JfrNativeSettings, align 8
@_ZN7JfrTime11_ft_enabledE = external global i8, align 1

; Function Attrs: mustprogress nounwind uwtable
define linkonce_odr hidden void @_ZN14RepresentationI33FastUnorderedElapsedCounterSourceEC2Ev(ptr noundef nonnull align 8 dereferenceable(8) %0) unnamed_addr #1 comdat align 2 {
  %2 = alloca ptr, align 8
  store ptr %0, ptr %2, align 8
  %3 = load ptr, ptr %2, align 8
  %4 = getelementptr inbounds %class.Representation.4, ptr %3, i32 0, i32 0
  store i64 0, ptr %4, align 8
  ret void
}

; Function Attrs: mustprogress nounwind uwtable
define linkonce_odr hidden void @_ZN21CounterRepresentationI33FastUnorderedElapsedCounterSourceEC2Ev(ptr noundef nonnull align 8 dereferenceable(8) %0) unnamed_addr #1 comdat align 2 {
  %2 = alloca ptr, align 8
  store ptr %0, ptr %2, align 8
  %3 = load ptr, ptr %2, align 8
  call void @_ZN14RepresentationI33FastUnorderedElapsedCounterSourceEC2Ev(ptr noundef nonnull align 8 dereferenceable(8) %3)
  ret void
}

; Function Attrs: mustprogress nounwind uwtable
define linkonce_odr hidden noundef nonnull align 8 dereferenceable(24) ptr @_ZN15JfrEventSetting7settingE10JfrEventId(i32 noundef %0) #1 comdat align 2 {
  %2 = alloca i32, align 4
  store i32 %0, ptr %2, align 4
  %3 = load i32, ptr %2, align 4
  %4 = zext i32 %3 to i64
  %5 = getelementptr inbounds [164 x %struct.jfrNativeEventSetting], ptr @_ZN15JfrEventSetting19_jvm_event_settingsE, i64 0, i64 %4
  ret ptr %5
}

; Function Attrs: mustprogress nounwind uwtable
define linkonce_odr hidden noundef i64 @_ZNK21CounterRepresentationI33FastUnorderedElapsedCounterSourceE5valueEv(ptr noundef nonnull align 8 dereferenceable(8) %0) #1 comdat align 2 {
  %2 = alloca ptr, align 8
  store ptr %0, ptr %2, align 8
  %3 = load ptr, ptr %2, align 8
  %4 = getelementptr inbounds %class.Representation.4, ptr %3, i32 0, i32 0
  %5 = load i64, ptr %4, align 8
  ret i64 %5
}

; Function Attrs: mustprogress nounwind uwtable
define linkonce_odr hidden void @_ZN11TimeInstantI21CounterRepresentation33FastUnorderedElapsedCounterSourceE5stampEv(ptr noundef nonnull align 8 dereferenceable(8) %0) #1 comdat align 2 {
  %2 = alloca ptr, align 8
  store ptr %0, ptr %2, align 8
  %3 = load ptr, ptr %2, align 8
  %4 = call noundef i64 @_ZN33FastUnorderedElapsedCounterSource3nowEv()
  %5 = getelementptr inbounds %class.Representation.4, ptr %3, i32 0, i32 0
  store i64 %4, ptr %5, align 8
  ret void
}

; Function Attrs: mustprogress nounwind uwtable
define linkonce_odr hidden void @_ZN11TimeInstantI21CounterRepresentation33FastUnorderedElapsedCounterSourceEC2Ev(ptr noundef nonnull align 8 dereferenceable(8) %0) unnamed_addr #1 comdat align 2 {
  %2 = alloca ptr, align 8
  store ptr %0, ptr %2, align 8
  %3 = load ptr, ptr %2, align 8
  call void @_ZN21CounterRepresentationI33FastUnorderedElapsedCounterSourceEC2Ev(ptr noundef nonnull align 8 dereferenceable(8) %3)
  ret void
}

; Function Attrs: mustprogress nounwind uwtable
define linkonce_odr hidden noundef zeroext i1 @_ZN15JfrEventSetting10is_enabledE10JfrEventId(i32 noundef %0) #1 comdat align 2 {
  %2 = alloca i32, align 4
  store i32 %0, ptr %2, align 4
  %3 = load i32, ptr %2, align 4
  %4 = call noundef nonnull align 8 dereferenceable(24) ptr @_ZN15JfrEventSetting7settingE10JfrEventId(i32 noundef %3)
  %5 = getelementptr inbounds %struct.jfrNativeEventSetting, ptr %4, i32 0, i32 3
  %6 = load i8, ptr %5, align 1
  %7 = zext i8 %6 to i32
  %8 = icmp ne i32 0, %7
  ret i1 %8
}

; Function Attrs: mustprogress nounwind uwtable
define linkonce_odr hidden void @_ZN8JfrEventI22EventNativeMemoryUsageE13set_starttimeERK11TimeInstantI21CounterRepresentation33FastUnorderedElapsedCounterSourceE(ptr noundef nonnull align 8 dereferenceable(19) %0, ptr noundef nonnull align 8 dereferenceable(8) %1) #1 comdat align 2 {
  %3 = alloca ptr, align 8
  %4 = alloca ptr, align 8
  store ptr %0, ptr %3, align 8
  store ptr %1, ptr %4, align 8
  %5 = load ptr, ptr %3, align 8
  %6 = load ptr, ptr %4, align 8
  %7 = call noundef i64 @_ZNK21CounterRepresentationI33FastUnorderedElapsedCounterSourceE5valueEv(ptr noundef nonnull align 8 dereferenceable(8) %6)
  %8 = getelementptr inbounds %class.JfrEvent.0, ptr %5, i32 0, i32 0
  store i64 %7, ptr %8, align 8
  ret void
}

; Function Attrs: mustprogress nounwind uwtable
define linkonce_odr hidden i64 @_ZN11TimeInstantI21CounterRepresentation33FastUnorderedElapsedCounterSourceE3nowEv() #1 comdat align 2 {
  %1 = alloca %class.TimeInstant.3, align 8
  call void @_ZN11TimeInstantI21CounterRepresentation33FastUnorderedElapsedCounterSourceEC2Ev(ptr noundef nonnull align 8 dereferenceable(8) %1)
  call void @_ZN11TimeInstantI21CounterRepresentation33FastUnorderedElapsedCounterSourceE5stampEv(ptr noundef nonnull align 8 dereferenceable(8) %1)
  %2 = getelementptr inbounds %class.TimeInstant.3, ptr %1, i32 0, i32 0
  %3 = getelementptr inbounds %class.CounterRepresentation, ptr %2, i32 0, i32 0
  %4 = getelementptr inbounds %class.Representation.4, ptr %3, i32 0, i32 0
  %5 = load i64, ptr %4, align 8
  ret i64 %5
}

; Function Attrs: mustprogress nounwind uwtable
define linkonce_odr hidden noundef zeroext i1 @_ZN8JfrEventI22EventNativeMemoryUsageE10is_enabledEv() #1 comdat align 2 {
  %1 = call noundef zeroext i1 @_ZN15JfrEventSetting10is_enabledE10JfrEventId(i32 noundef 93)
  ret i1 %1
}

; Function Attrs: mustprogress nounwind uwtable
define linkonce_odr hidden noundef i64 @_ZNK30CompositeCounterRepresentationI29CompositeElapsedCounterSourceE5valueEv(ptr noundef nonnull align 8 dereferenceable(16) %0) #1 comdat align 2 {
  %2 = alloca ptr, align 8
  store ptr %0, ptr %2, align 8
  %3 = load ptr, ptr %2, align 8
  %4 = getelementptr inbounds %class.Representation, ptr %3, i32 0, i32 0
  %5 = getelementptr inbounds %class.PairRep, ptr %4, i32 0, i32 0
  %6 = load i64, ptr %5, align 8
  ret i64 %6
}

; Function Attrs: mustprogress nounwind uwtable
define linkonce_odr hidden noundef i64 @_ZNK30CompositeCounterRepresentationI29CompositeElapsedCounterSourceE8ft_valueEv(ptr noundef nonnull align 8 dereferenceable(16) %0) #1 comdat align 2 {
  %2 = alloca ptr, align 8
  store ptr %0, ptr %2, align 8
  %3 = load ptr, ptr %2, align 8
  %4 = getelementptr inbounds %class.Representation, ptr %3, i32 0, i32 0
  %5 = getelementptr inbounds %class.PairRep, ptr %4, i32 0, i32 1
  %6 = load i64, ptr %5, align 8
  ret i64 %6
}

; Function Attrs: mustprogress nounwind uwtable
define linkonce_odr hidden noundef zeroext i1 @_ZN7JfrTime13is_ft_enabledEv() #1 comdat align 2 {
  %1 = load i8, ptr @_ZN7JfrTime11_ft_enabledE, align 1
  %2 = trunc i8 %1 to i1
  ret i1 %2
}

; Function Attrs: mustprogress nounwind uwtable
define linkonce_odr hidden void @_ZN8JfrEventI22EventNativeMemoryUsageEC2E14EventStartTime(ptr noundef nonnull align 8 dereferenceable(19) %0, i32 noundef %1) unnamed_addr #1 comdat align 2 {
  %3 = alloca ptr, align 8
  %4 = alloca i32, align 4
  %5 = alloca %class.TimeInstant.3, align 8
  store ptr %0, ptr %3, align 8
  store i32 %1, ptr %4, align 4
  %6 = load ptr, ptr %3, align 8
  %7 = getelementptr inbounds %class.JfrEvent.0, ptr %6, i32 0, i32 0
  store i64 0, ptr %7, align 8
  %8 = getelementptr inbounds %class.JfrEvent.0, ptr %6, i32 0, i32 1
  store i64 0, ptr %8, align 8
  %9 = getelementptr inbounds %class.JfrEvent.0, ptr %6, i32 0, i32 2
  %10 = load i32, ptr %4, align 4
  %11 = icmp eq i32 %10, 0
  %12 = zext i1 %11 to i8
  store i8 %12, ptr %9, align 8
  %13 = getelementptr inbounds %class.JfrEvent.0, ptr %6, i32 0, i32 3
  store i8 0, ptr %13, align 1
  %14 = getelementptr inbounds %class.JfrEvent.0, ptr %6, i32 0, i32 4
  store i8 0, ptr %14, align 2
  %15 = getelementptr inbounds %class.JfrEvent.0, ptr %6, i32 0, i32 2
  %16 = load i8, ptr %15, align 8
  %17 = trunc i8 %16 to i1
  br i1 %17, label %25, label %18

18:                                               ; preds = %2
  %19 = call noundef zeroext i1 @_ZN8JfrEventI22EventNativeMemoryUsageE10is_enabledEv()
  br i1 %19, label %20, label %25

20:                                               ; preds = %18
  %21 = call i64 @_ZN11TimeInstantI21CounterRepresentation33FastUnorderedElapsedCounterSourceE3nowEv()
  %22 = getelementptr inbounds %class.TimeInstant.3, ptr %5, i32 0, i32 0
  %23 = getelementptr inbounds %class.CounterRepresentation, ptr %22, i32 0, i32 0
  %24 = getelementptr inbounds %class.Representation.4, ptr %23, i32 0, i32 0
  store i64 %21, ptr %24, align 8
  call void @_ZN8JfrEventI22EventNativeMemoryUsageE13set_starttimeERK11TimeInstantI21CounterRepresentation33FastUnorderedElapsedCounterSourceE(ptr noundef nonnull align 8 dereferenceable(19) %6, ptr noundef nonnull align 8 dereferenceable(8) %5)
  br label %25

25:                                               ; preds = %20, %18, %2
  ret void
}

; Function Attrs: mustprogress nounwind uwtable
define linkonce_odr hidden void @_ZN22EventNativeMemoryUsage13set_committedEm(ptr noundef nonnull align 8 dereferenceable(48) %0, i64 noundef %1) #1 comdat align 2 {
  %3 = alloca ptr, align 8
  %4 = alloca i64, align 8
  store ptr %0, ptr %3, align 8
  store i64 %1, ptr %4, align 8
  %5 = load ptr, ptr %3, align 8
  %6 = load i64, ptr %4, align 8
  %7 = getelementptr inbounds %class.EventNativeMemoryUsage, ptr %5, i32 0, i32 3
  store i64 %6, ptr %7, align 8
  ret void
}

; Function Attrs: mustprogress nounwind uwtable
define linkonce_odr hidden void @_ZN22EventNativeMemoryUsage12set_reservedEm(ptr noundef nonnull align 8 dereferenceable(48) %0, i64 noundef %1) #1 comdat align 2 {
  %3 = alloca ptr, align 8
  %4 = alloca i64, align 8
  store ptr %0, ptr %3, align 8
  store i64 %1, ptr %4, align 8
  %5 = load ptr, ptr %3, align 8
  %6 = load i64, ptr %4, align 8
  %7 = getelementptr inbounds %class.EventNativeMemoryUsage, ptr %5, i32 0, i32 2
  store i64 %6, ptr %7, align 8
  ret void
}

; Function Attrs: mustprogress nounwind uwtable
define linkonce_odr hidden void @_ZN22EventNativeMemoryUsage8set_typeEm(ptr noundef nonnull align 8 dereferenceable(48) %0, i64 noundef %1) #1 comdat align 2 {
  %3 = alloca ptr, align 8
  %4 = alloca i64, align 8
  store ptr %0, ptr %3, align 8
  store i64 %1, ptr %4, align 8
  %5 = load ptr, ptr %3, align 8
  %6 = load i64, ptr %4, align 8
  %7 = getelementptr inbounds %class.EventNativeMemoryUsage, ptr %5, i32 0, i32 1
  store i64 %6, ptr %7, align 8
  ret void
}

; Function Attrs: mustprogress nounwind uwtable
define linkonce_odr hidden noundef i32 @_ZN7NMTUtil13flag_to_indexE8MEMFLAGS(i8 noundef zeroext %0) #1 comdat align 2 {
  %2 = alloca i8, align 1
  store i8 %0, ptr %2, align 1
  %3 = load i8, ptr %2, align 1
  %4 = zext i8 %3 to i32
  ret i32 %4
}

; Function Attrs: mustprogress nounwind uwtable
define linkonce_odr hidden void @_ZN8JfrEventI22EventNativeMemoryUsageE13set_starttimeERK11TimeInstantI30CompositeCounterRepresentation29CompositeElapsedCounterSourceE(ptr noundef nonnull align 8 dereferenceable(19) %0, ptr noundef nonnull align 8 dereferenceable(16) %1) #1 comdat align 2 {
  %3 = alloca ptr, align 8
  %4 = alloca ptr, align 8
  store ptr %0, ptr %3, align 8
  store ptr %1, ptr %4, align 8
  %5 = load ptr, ptr %3, align 8
  %6 = call noundef zeroext i1 @_ZN7JfrTime13is_ft_enabledEv()
  br i1 %6, label %7, label %10

7:                                                ; preds = %2
  %8 = load ptr, ptr %4, align 8
  %9 = call noundef i64 @_ZNK30CompositeCounterRepresentationI29CompositeElapsedCounterSourceE8ft_valueEv(ptr noundef nonnull align 8 dereferenceable(16) %8)
  br label %13

10:                                               ; preds = %2
  %11 = load ptr, ptr %4, align 8
  %12 = call noundef i64 @_ZNK30CompositeCounterRepresentationI29CompositeElapsedCounterSourceE5valueEv(ptr noundef nonnull align 8 dereferenceable(16) %11)
  br label %13

13:                                               ; preds = %10, %7
  %14 = phi i64 [ %9, %7 ], [ %12, %10 ]
  %15 = getelementptr inbounds %class.JfrEvent.0, ptr %5, i32 0, i32 0
  store i64 %14, ptr %15, align 8
  ret void
}

; Function Attrs: mustprogress nounwind uwtable
define linkonce_odr hidden void @_ZN22EventNativeMemoryUsageC2E14EventStartTime(ptr noundef nonnull align 8 dereferenceable(48) %0, i32 noundef %1) unnamed_addr #1 comdat align 2 {
  %3 = alloca ptr, align 8
  %4 = alloca i32, align 4
  store ptr %0, ptr %3, align 8
  store i32 %1, ptr %4, align 4
  %5 = load ptr, ptr %3, align 8
  %6 = load i32, ptr %4, align 4
  call void @_ZN8JfrEventI22EventNativeMemoryUsageEC2E14EventStartTime(ptr noundef nonnull align 8 dereferenceable(19) %5, i32 noundef %6)
  ret void
}

; Function Attrs: mustprogress nounwind uwtable
define hidden void @_ZN20JfrNativeMemoryEvent15send_type_eventERK11TimeInstantI30CompositeCounterRepresentation29CompositeElapsedCounterSourceE8MEMFLAGSmm(ptr noundef nonnull align 8 dereferenceable(16) %0, i8 noundef zeroext %1, i64 noundef %2, i64 noundef %3) #1 align 2 {
  %5 = alloca ptr, align 8
  %6 = alloca i8, align 1
  %7 = alloca i64, align 8
  %8 = alloca i64, align 8
  %9 = alloca %class.EventNativeMemoryUsage, align 8
  store ptr %0, ptr %5, align 8
  store i8 %1, ptr %6, align 1
  store i64 %2, ptr %7, align 8
  store i64 %3, ptr %8, align 8
  call void @_ZN22EventNativeMemoryUsageC2E14EventStartTime(ptr noundef nonnull align 8 dereferenceable(48) %9, i32 noundef 0)
  %10 = load ptr, ptr %5, align 8
  call void @_ZN8JfrEventI22EventNativeMemoryUsageE13set_starttimeERK11TimeInstantI30CompositeCounterRepresentation29CompositeElapsedCounterSourceE(ptr noundef nonnull align 8 dereferenceable(19) %9, ptr noundef nonnull align 8 dereferenceable(16) %10)
  %11 = load i8, ptr %6, align 1
  %12 = call noundef i32 @_ZN7NMTUtil13flag_to_indexE8MEMFLAGS(i8 noundef zeroext %11)
  %13 = sext i32 %12 to i64
  call void @_ZN22EventNativeMemoryUsage8set_typeEm(ptr noundef nonnull align 8 dereferenceable(48) %9, i64 noundef %13)
  %14 = load i64, ptr %7, align 8
  call void @_ZN22EventNativeMemoryUsage12set_reservedEm(ptr noundef nonnull align 8 dereferenceable(48) %9, i64 noundef %14)
  %15 = load i64, ptr %8, align 8
  call void @_ZN22EventNativeMemoryUsage13set_committedEm(ptr noundef nonnull align 8 dereferenceable(48) %9, i64 noundef %15)
  call void @_ZN8JfrEventI22EventNativeMemoryUsageE6commitEv(ptr noundef nonnull align 8 dereferenceable(19) %9)
  ret void
}

; Function Attrs: mustprogress nounwind uwtable
define linkonce_odr hidden noundef zeroext i8 @_ZN7NMTUtil13index_to_flagEi(i32 noundef %0) #1 comdat align 2 {
  %2 = alloca i32, align 4
  store i32 %0, ptr %2, align 4
  %3 = load i32, ptr %2, align 4
  %4 = trunc i32 %3 to i8
  ret i8 %4
}

; Function Attrs: mustprogress nounwind uwtable
define linkonce_odr hidden noundef zeroext i1 @_ZN10MemTracker7enabledEv() #1 comdat align 2 {
  %1 = load i32, ptr @_ZN10MemTracker15_tracking_levelE, align 4
  %2 = icmp sgt i32 %1, 1
  ret i1 %2
}

; Function Attrs: mustprogress nounwind uwtable
define hidden void @_ZN20JfrNativeMemoryEvent16send_type_eventsERK11TimeInstantI30CompositeCounterRepresentation29CompositeElapsedCounterSourceE(ptr noundef nonnull align 8 dereferenceable(16) %0) #1 align 2 {
  %2 = alloca ptr, align 8
  %3 = alloca ptr, align 8
  %4 = alloca i32, align 4
  %5 = alloca i8, align 1
  store ptr %0, ptr %2, align 8
  %6 = call noundef zeroext i1 @_ZN10MemTracker7enabledEv()
  br i1 %6, label %8, label %7

7:                                                ; preds = %1
  br label %32

8:                                                ; preds = %1
  %9 = load ptr, ptr %2, align 8
  %10 = call noundef ptr @_ZL9get_usageRK11TimeInstantI30CompositeCounterRepresentation29CompositeElapsedCounterSourceE(ptr noundef nonnull align 8 dereferenceable(16) %9)
  store ptr %10, ptr %3, align 8
  store i32 0, ptr %4, align 4
  br label %11

11:                                               ; preds = %29, %8
  %12 = load i32, ptr %4, align 4
  %13 = icmp slt i32 %12, 28
  br i1 %13, label %14, label %32

14:                                               ; preds = %11
  %15 = load i32, ptr %4, align 4
  %16 = call noundef zeroext i8 @_ZN7NMTUtil13index_to_flagEi(i32 noundef %15)
  store i8 %16, ptr %5, align 1
  %17 = load i8, ptr %5, align 1
  %18 = icmp eq i8 %17, 27
  br i1 %18, label %19, label %20

19:                                               ; preds = %14
  br label %29

20:                                               ; preds = %14
  %21 = load ptr, ptr %2, align 8
  %22 = load i8, ptr %5, align 1
  %23 = load ptr, ptr %3, align 8
  %24 = load i8, ptr %5, align 1
  %25 = call noundef i64 @_ZNK8NMTUsage8reservedE8MEMFLAGS(ptr noundef nonnull align 8 dereferenceable(699) %23, i8 noundef zeroext %24)
  %26 = load ptr, ptr %3, align 8
  %27 = load i8, ptr %5, align 1
  %28 = call noundef i64 @_ZNK8NMTUsage9committedE8MEMFLAGS(ptr noundef nonnull align 8 dereferenceable(699) %26, i8 noundef zeroext %27)
  call void @_ZN20JfrNativeMemoryEvent15send_type_eventERK11TimeInstantI30CompositeCounterRepresentation29CompositeElapsedCounterSourceE8MEMFLAGSmm(ptr noundef nonnull align 8 dereferenceable(16) %21, i8 noundef zeroext %22, i64 noundef %25, i64 noundef %28)
  br label %29

29:                                               ; preds = %20, %19
  %30 = load i32, ptr %4, align 4
  %31 = add nsw i32 %30, 1
  store i32 %31, ptr %4, align 4
  br label %11, !llvm.loop !7

32:                                               ; preds = %11, %7
  ret void
}