; Function Attrs: mustprogress nounwind uwtable
define hidden void @_ZN20JfrNativeMemoryEvent16send_type_eventsERK11TimeInstantI30CompositeCounterRepresentation29CompositeElapsedCounterSourceE(ptr nocapture noundef nonnull readonly align 8 dereferenceable(16) %0) local_unnamed_addr #0 align 2 {
  %2 = alloca %class.EventNativeMemoryUsage, align 8
  %3 = load i32, ptr @_ZN10MemTracker15_tracking_levelE, align 4
  %4 = icmp sgt i32 %3, 1
  br i1 %4, label %5, label %.loopexit

5:                                                ; preds = %1
  %6 = tail call fastcc noundef ptr @_ZL9get_usageRK11TimeInstantI30CompositeCounterRepresentation29CompositeElapsedCounterSourceE(ptr noundef nonnull align 8 dereferenceable(16) %0)
  %7 = getelementptr inbounds i8, ptr %2, i64 16
  %8 = getelementptr inbounds i8, ptr %2, i64 8
  %9 = getelementptr inbounds i8, ptr %2, i64 17
  %10 = getelementptr inbounds i8, ptr %2, i64 18
  %11 = getelementptr inbounds i8, ptr %0, i64 8
  %12 = getelementptr inbounds i8, ptr %2, i64 24
  %13 = getelementptr inbounds i8, ptr %2, i64 32
  %14 = getelementptr inbounds i8, ptr %2, i64 40
  br label %15

15:                                               ; preds = %5, %15
  %indvars.iv15 = phi i64 [ 0, %5 ], [ %indvars.iv.next, %15 ]
  %16 = trunc i64 %indvars.iv15 to i8
  %17 = call noundef i64 @_ZNK8NMTUsage8reservedE8MEMFLAGS(ptr noundef nonnull align 8 dereferenceable(699) %6, i8 noundef zeroext %16) #8
  %18 = call noundef i64 @_ZNK8NMTUsage9committedE8MEMFLAGS(ptr noundef nonnull align 8 dereferenceable(699) %6, i8 noundef zeroext %16) #8
  call void @llvm.lifetime.start.p0(i64 48, ptr nonnull %2)
  store i64 0, ptr %8, align 8
  store i8 1, ptr %7, align 8
  store i8 0, ptr %9, align 1
  store i8 0, ptr %10, align 2
  %19 = load i8, ptr @_ZN7JfrTime11_ft_enabledE, align 1
  %20 = trunc i8 %19 to i1
  %21 = load i64, ptr %11, align 8
  %22 = load i64, ptr %0, align 8
  %23 = select i1 %20, i64 %21, i64 %22
  store i64 %23, ptr %2, align 8
  store i64 %indvars.iv15, ptr %12, align 8
  store i64 %17, ptr %13, align 8
  store i64 %18, ptr %14, align 8
  call void @_ZN8JfrEventI22EventNativeMemoryUsageE6commitEv(ptr noundef nonnull align 8 dereferenceable(19) %2)
  call void @llvm.lifetime.end.p0(i64 48, ptr nonnull %2)
  %indvars.iv.next = add nuw nsw i64 %indvars.iv15, 1
  %24 = icmp eq i64 %indvars.iv.next, 27
  br i1 %24, label %.loopexit, label %15

.loopexit:                                        ; preds = %15, %1
  ret void
}